target datalayout = "e-m:e-p270:32:32-p271:32:32-p272:64:64-i64:64-i128:128-f80:128-n8:16:32:64-S128"
target triple = "x86_64-pc-linux-gnu"

%struct.H5FL_gc_arr_list_t = type { i64, ptr }
%struct.H5FL_gc_arr_node_t = type { ptr, ptr }
%struct.H5FL_arr_head_t = type { i8, i32, i64, ptr, i32, i64, i64, ptr }
%struct.H5FL_arr_node_t = type { i64, i32, i32, ptr }

@H5FL_init_g = global i8 0, align 1
@H5_libterm_g = external global i8, align 1
@.str.2 = private unnamed_addr constant [98 x i8] c"generated/home/dtcxzyw/WorkSpace/Projects/compilers/llvm-opt-benchmark/bench/hdf5/hdf5/src/H5FL.c\00", align 1
@H5E_RESOURCE_g = external global i64, align 8
@H5E_CANTGC_g = external global i64, align 8
@H5FL_arr_gc_head = internal global %struct.H5FL_gc_arr_list_t zeroinitializer, align 8
@.str.19 = private unnamed_addr constant [34 x i8] c"garbage collection of list failed\00", align 1
@__func__.H5FL__arr_gc = private unnamed_addr constant [13 x i8] c"H5FL__arr_gc\00", align 1

; Function Attrs: nounwind uwtable
define internal i32 @H5FL__arr_gc_list(ptr noundef %0) #0 {
  %2 = alloca ptr, align 8
  %3 = alloca i32, align 4
  %4 = alloca ptr, align 8
  %5 = alloca ptr, align 8
  store ptr %0, ptr %2, align 8, !tbaa !101
  call void @llvm.lifetime.start.p0(i64 4, ptr %3) #9
  %6 = load i8, ptr @H5FL_init_g, align 1, !tbaa !7, !range !9, !noundef !10
  %7 = trunc i8 %6 to i1
  br i1 %7, label %12, label %8

8:                                                ; preds = %1
  %9 = load i8, ptr @H5_libterm_g, align 1, !tbaa !7, !range !9, !noundef !10
  %10 = trunc i8 %9 to i1
  %11 = xor i1 %10, true
  br label %12

12:                                               ; preds = %8, %1
  %13 = phi i1 [ true, %1 ], [ %11, %8 ]
  %14 = xor i1 %13, true
  %15 = xor i1 %14, true
  %16 = zext i1 %15 to i32
  %17 = sext i32 %16 to i64
  %18 = call i64 @llvm.expect.i64(i64 %17, i64 1)
  %19 = icmp ne i64 %18, 0
  br i1 %19, label %20, label %145

20:                                               ; preds = %12
  store i32 0, ptr %3, align 4, !tbaa !3
  br label %21

21:                                               ; preds = %141, %20
  %22 = load i32, ptr %3, align 4, !tbaa !3
  %23 = load ptr, ptr %2, align 8, !tbaa !101
  %24 = getelementptr inbounds nuw %struct.H5FL_arr_head_t, ptr %23, i32 0, i32 4
  %25 = load i32, ptr %24, align 8, !tbaa !110
  %26 = icmp ult i32 %22, %25
  br i1 %26, label %27, label %144

27:                                               ; preds = %21
  %28 = load ptr, ptr %2, align 8, !tbaa !101
  %29 = getelementptr inbounds nuw %struct.H5FL_arr_head_t, ptr %28, i32 0, i32 7
  %30 = load ptr, ptr %29, align 8, !tbaa !52
  %31 = load i32, ptr %3, align 4, !tbaa !3
  %32 = zext i32 %31 to i64
  %33 = getelementptr inbounds nuw %struct.H5FL_arr_node_t, ptr %30, i64 %32
  %34 = getelementptr inbounds nuw %struct.H5FL_arr_node_t, ptr %33, i32 0, i32 2
  %35 = load i32, ptr %34, align 4, !tbaa !107
  %36 = icmp ugt i32 %35, 0
  br i1 %36, label %37, label %140

37:                                               ; preds = %27
  call void @llvm.lifetime.start.p0(i64 8, ptr %4) #9
  %38 = load ptr, ptr %2, align 8, !tbaa !101
  %39 = getelementptr inbounds nuw %struct.H5FL_arr_head_t, ptr %38, i32 0, i32 7
  %40 = load ptr, ptr %39, align 8, !tbaa !52
  %41 = load i32, ptr %3, align 4, !tbaa !3
  %42 = zext i32 %41 to i64
  %43 = getelementptr inbounds nuw %struct.H5FL_arr_node_t, ptr %40, i64 %42
  %44 = getelementptr inbounds nuw %struct.H5FL_arr_node_t, ptr %43, i32 0, i32 3
  %45 = load ptr, ptr %44, align 8, !tbaa !104
  store ptr %45, ptr %4, align 8, !tbaa !102
  br label %46

46:                                               ; preds = %49, %37
  %47 = load ptr, ptr %4, align 8, !tbaa !102
  %48 = icmp ne ptr %47, null
  br i1 %48, label %49, label %54

49:                                               ; preds = %46
  call void @llvm.lifetime.start.p0(i64 8, ptr %5) #9
  %50 = load ptr, ptr %4, align 8, !tbaa !102
  %51 = load ptr, ptr %50, align 8, !tbaa !91
  store ptr %51, ptr %5, align 8, !tbaa !102
  %52 = load ptr, ptr %4, align 8, !tbaa !102
  call void @free(ptr noundef %52) #9
  %53 = load ptr, ptr %5, align 8, !tbaa !102
  store ptr %53, ptr %4, align 8, !tbaa !102
  call void @llvm.lifetime.end.p0(i64 8, ptr %5) #9
  br label %46, !llvm.loop !111

54:                                               ; preds = %46
  %55 = load ptr, ptr %2, align 8, !tbaa !101
  %56 = getelementptr inbounds nuw %struct.H5FL_arr_head_t, ptr %55, i32 0, i32 7
  %57 = load ptr, ptr %56, align 8, !tbaa !52
  %58 = load i32, ptr %3, align 4, !tbaa !3
  %59 = zext i32 %58 to i64
  %60 = getelementptr inbounds nuw %struct.H5FL_arr_node_t, ptr %57, i64 %59
  %61 = getelementptr inbounds nuw %struct.H5FL_arr_node_t, ptr %60, i32 0, i32 2
  %62 = load i32, ptr %61, align 4, !tbaa !107
  %63 = load ptr, ptr %2, align 8, !tbaa !101
  %64 = getelementptr inbounds nuw %struct.H5FL_arr_head_t, ptr %63, i32 0, i32 7
  %65 = load ptr, ptr %64, align 8, !tbaa !52
  %66 = load i32, ptr %3, align 4, !tbaa !3
  %67 = zext i32 %66 to i64
  %68 = getelementptr inbounds nuw %struct.H5FL_arr_node_t, ptr %65, i64 %67
  %69 = getelementptr inbounds nuw %struct.H5FL_arr_node_t, ptr %68, i32 0, i32 1
  %70 = load i32, ptr %69, align 8, !tbaa !112
  %71 = sub i32 %70, %62
  store i32 %71, ptr %69, align 8, !tbaa !112
  %72 = load ptr, ptr %2, align 8, !tbaa !101
  %73 = getelementptr inbounds nuw %struct.H5FL_arr_head_t, ptr %72, i32 0, i32 7
  %74 = load ptr, ptr %73, align 8, !tbaa !52
  %75 = load i32, ptr %3, align 4, !tbaa !3
  %76 = zext i32 %75 to i64
  %77 = getelementptr inbounds nuw %struct.H5FL_arr_node_t, ptr %74, i64 %76
  %78 = getelementptr inbounds nuw %struct.H5FL_arr_node_t, ptr %77, i32 0, i32 2
  %79 = load i32, ptr %78, align 4, !tbaa !107
  %80 = load ptr, ptr %2, align 8, !tbaa !101
  %81 = getelementptr inbounds nuw %struct.H5FL_arr_head_t, ptr %80, i32 0, i32 1
  %82 = load i32, ptr %81, align 4, !tbaa !49
  %83 = sub i32 %82, %79
  store i32 %83, ptr %81, align 4, !tbaa !49
  %84 = load ptr, ptr %2, align 8, !tbaa !101
  %85 = getelementptr inbounds nuw %struct.H5FL_arr_head_t, ptr %84, i32 0, i32 7
  %86 = load ptr, ptr %85, align 8, !tbaa !52
  %87 = load i32, ptr %3, align 4, !tbaa !3
  %88 = zext i32 %87 to i64
  %89 = getelementptr inbounds nuw %struct.H5FL_arr_node_t, ptr %86, i64 %88
  %90 = getelementptr inbounds nuw %struct.H5FL_arr_node_t, ptr %89, i32 0, i32 2
  %91 = load i32, ptr %90, align 4, !tbaa !107
  %92 = zext i32 %91 to i64
  %93 = load ptr, ptr %2, align 8, !tbaa !101
  %94 = getelementptr inbounds nuw %struct.H5FL_arr_head_t, ptr %93, i32 0, i32 7
  %95 = load ptr, ptr %94, align 8, !tbaa !52
  %96 = load i32, ptr %3, align 4, !tbaa !3
  %97 = zext i32 %96 to i64
  %98 = getelementptr inbounds nuw %struct.H5FL_arr_node_t, ptr %95, i64 %97
  %99 = getelementptr inbounds nuw %struct.H5FL_arr_node_t, ptr %98, i32 0, i32 0
  %100 = load i64, ptr %99, align 8, !tbaa !106
  %101 = mul i64 %92, %100
  %102 = load ptr, ptr %2, align 8, !tbaa !101
  %103 = getelementptr inbounds nuw %struct.H5FL_arr_head_t, ptr %102, i32 0, i32 2
  %104 = load i64, ptr %103, align 8, !tbaa !108
  %105 = sub i64 %104, %101
  store i64 %105, ptr %103, align 8, !tbaa !108
  %106 = load ptr, ptr %2, align 8, !tbaa !101
  %107 = getelementptr inbounds nuw %struct.H5FL_arr_head_t, ptr %106, i32 0, i32 7
  %108 = load ptr, ptr %107, align 8, !tbaa !52
  %109 = load i32, ptr %3, align 4, !tbaa !3
  %110 = zext i32 %109 to i64
  %111 = getelementptr inbounds nuw %struct.H5FL_arr_node_t, ptr %108, i64 %110
  %112 = getelementptr inbounds nuw %struct.H5FL_arr_node_t, ptr %111, i32 0, i32 2
  %113 = load i32, ptr %112, align 4, !tbaa !107
  %114 = zext i32 %113 to i64
  %115 = load ptr, ptr %2, align 8, !tbaa !101
  %116 = getelementptr inbounds nuw %struct.H5FL_arr_head_t, ptr %115, i32 0, i32 7
  %117 = load ptr, ptr %116, align 8, !tbaa !52
  %118 = load i32, ptr %3, align 4, !tbaa !3
  %119 = zext i32 %118 to i64
  %120 = getelementptr inbounds nuw %struct.H5FL_arr_node_t, ptr %117, i64 %119
  %121 = getelementptr inbounds nuw %struct.H5FL_arr_node_t, ptr %120, i32 0, i32 0
  %122 = load i64, ptr %121, align 8, !tbaa !106
  %123 = mul i64 %114, %122
  %124 = load i64, ptr @H5FL_arr_gc_head, align 8, !tbaa !109
  %125 = sub i64 %124, %123
  store i64 %125, ptr @H5FL_arr_gc_head, align 8, !tbaa !109
  %126 = load ptr, ptr %2, align 8, !tbaa !101
  %127 = getelementptr inbounds nuw %struct.H5FL_arr_head_t, ptr %126, i32 0, i32 7
  %128 = load ptr, ptr %127, align 8, !tbaa !52
  %129 = load i32, ptr %3, align 4, !tbaa !3
  %130 = zext i32 %129 to i64
  %131 = getelementptr inbounds nuw %struct.H5FL_arr_node_t, ptr %128, i64 %130
  %132 = getelementptr inbounds nuw %struct.H5FL_arr_node_t, ptr %131, i32 0, i32 3
  store ptr null, ptr %132, align 8, !tbaa !104
  %133 = load ptr, ptr %2, align 8, !tbaa !101
  %134 = getelementptr inbounds nuw %struct.H5FL_arr_head_t, ptr %133, i32 0, i32 7
  %135 = load ptr, ptr %134, align 8, !tbaa !52
  %136 = load i32, ptr %3, align 4, !tbaa !3
  %137 = zext i32 %136 to i64
  %138 = getelementptr inbounds nuw %struct.H5FL_arr_node_t, ptr %135, i64 %137
  %139 = getelementptr inbounds nuw %struct.H5FL_arr_node_t, ptr %138, i32 0, i32 2
  store i32 0, ptr %139, align 4, !tbaa !107
  call void @llvm.lifetime.end.p0(i64 8, ptr %4) #9
  br label %140

140:                                              ; preds = %54, %27
  br label %141

141:                                              ; preds = %140
  %142 = load i32, ptr %3, align 4, !tbaa !3
  %143 = add i32 %142, 1
  store i32 %143, ptr %3, align 4, !tbaa !3
  br label %21, !llvm.loop !113

144:                                              ; preds = %21
  br label %145

145:                                              ; preds = %144, %12
  call void @llvm.lifetime.end.p0(i64 4, ptr %3) #9
  ret i32 0
}

; Function Attrs: nounwind uwtable
define internal i32 @H5FL__arr_gc() #0 {
  %1 = alloca ptr, align 8
  %2 = alloca i32, align 4
  %3 = alloca i8, align 1
  call void @llvm.lifetime.start.p0(i64 8, ptr %1) #9
  call void @llvm.lifetime.start.p0(i64 4, ptr %2) #9
  store i32 0, ptr %2, align 4, !tbaa !3
  call void @llvm.lifetime.start.p0(i64 1, ptr %3) #9
  store i8 0, ptr %3, align 1, !tbaa !7
  %4 = load i8, ptr @H5FL_init_g, align 1, !tbaa !7, !range !9, !noundef !10
  %5 = trunc i8 %4 to i1
  br i1 %5, label %10, label %6

6:                                                ; preds = %0
  %7 = load i8, ptr @H5_libterm_g, align 1, !tbaa !7, !range !9, !noundef !10
  %8 = trunc i8 %7 to i1
  %9 = xor i1 %8, true
  br label %10

10:                                               ; preds = %6, %0
  %11 = phi i1 [ true, %0 ], [ %9, %6 ]
  %12 = xor i1 %11, true
  %13 = xor i1 %12, true
  %14 = zext i1 %13 to i32
  %15 = sext i32 %14 to i64
  %16 = call i64 @llvm.expect.i64(i64 %15, i64 1)
  %17 = icmp ne i64 %16, 0
  br i1 %17, label %18, label %54

18:                                               ; preds = %10
  %19 = load ptr, ptr getelementptr inbounds nuw (%struct.H5FL_gc_arr_list_t, ptr @H5FL_arr_gc_head, i32 0, i32 1), align 8, !tbaa !43
  store ptr %19, ptr %1, align 8, !tbaa !41
  br label %20

20:                                               ; preds = %48, %18
  %21 = load ptr, ptr %1, align 8, !tbaa !41
  %22 = icmp ne ptr %21, null
  br i1 %22, label %23, label %52

23:                                               ; preds = %20
  %24 = load ptr, ptr %1, align 8, !tbaa !41
  %25 = getelementptr inbounds nuw %struct.H5FL_gc_arr_node_t, ptr %24, i32 0, i32 0
  %26 = load ptr, ptr %25, align 8, !tbaa !48
  %27 = call i32 @H5FL__arr_gc_list(ptr noundef %26)
  %28 = icmp slt i32 %27, 0
  br i1 %28, label %29, label %48

29:                                               ; preds = %23
  br label %30

30:                                               ; preds = %29
  br label %31

31:                                               ; preds = %30
  br label %32

32:                                               ; preds = %31
  %33 = load i64, ptr @H5E_RESOURCE_g, align 8, !tbaa !11
  %34 = load i64, ptr @H5E_CANTGC_g, align 8, !tbaa !11
  %35 = call i32 (ptr, ptr, i32, i64, i64, ptr, ...) @H5E_printf_stack(ptr noundef @.str.2, ptr noundef @__func__.H5FL__arr_gc, i32 noundef 1495, i64 noundef %33, i64 noundef %34, ptr noundef @.str.19)
  br label %36

36:                                               ; preds = %32
  br label %37

37:                                               ; preds = %36
  store i8 1, ptr %3, align 1, !tbaa !7
  %38 = load i8, ptr %3, align 1, !tbaa !7, !range !9, !noundef !10
  %39 = trunc i8 %38 to i1
  %40 = zext i1 %39 to i8
  store i8 %40, ptr %3, align 1, !tbaa !7
  br label %41

41:                                               ; preds = %37
  br label %42

42:                                               ; preds = %41
  br label %43

43:                                               ; preds = %42
  store i32 -1, ptr %2, align 4, !tbaa !3
  br label %53

44:                                               ; No predecessors!
  br label %45

45:                                               ; preds = %44
  br label %46

46:                                               ; preds = %45
  br label %47

47:                                               ; preds = %46
  br label %48

48:                                               ; preds = %47, %23
  %49 = load ptr, ptr %1, align 8, !tbaa !41
  %50 = getelementptr inbounds nuw %struct.H5FL_gc_arr_node_t, ptr %49, i32 0, i32 1
  %51 = load ptr, ptr %50, align 8, !tbaa !45
  store ptr %51, ptr %1, align 8, !tbaa !41
  br label %20, !llvm.loop !114

52:                                               ; preds = %20
  br label %53

53:                                               ; preds = %52, %43
  br label %54

54:                                               ; preds = %53, %10
  %55 = load i32, ptr %2, align 4, !tbaa !3
  call void @llvm.lifetime.end.p0(i64 1, ptr %3) #9
  call void @llvm.lifetime.end.p0(i64 4, ptr %2) #9
  call void @llvm.lifetime.end.p0(i64 8, ptr %1) #9
  ret i32 %55
}