; Function Attrs: nounwind uwtable
define internal fastcc void @H5FL__arr_gc() unnamed_addr #0 {
  %1 = load i8, ptr @H5FL_init_g, align 1, !tbaa !3, !range !7, !noundef !8
  %2 = trunc nuw i8 %1 to i1
  %3 = load i8, ptr @H5_libterm_g, align 1, !range !7
  %4 = trunc nuw i8 %3 to i1
  %not. = xor i1 %2, true
  %.not8 = select i1 %not., i1 %4, i1 false
  %.045 = load ptr, ptr @H5FL_arr_gc_head.1, align 8
  %.not6 = icmp eq ptr %.045, null
  %or.cond = select i1 %.not8, i1 true, i1 %.not6
  br i1 %or.cond, label %.loopexit, label %.lr.ph, !prof !64

.lr.ph:                                           ; preds = %0, %H5FL__arr_gc_list.exit
  %.047 = phi ptr [ %.04, %H5FL__arr_gc_list.exit ], [ %.045, %0 ]
  %5 = load ptr, ptr %.047, align 8, !tbaa !44
  %6 = load i8, ptr @H5FL_init_g, align 1, !tbaa !3, !range !7, !noundef !8
  %7 = trunc nuw i8 %6 to i1
  %8 = load i8, ptr @H5_libterm_g, align 1, !range !7
  %9 = trunc nuw i8 %8 to i1
  %10 = xor i1 %9, true
  %11 = select i1 %7, i1 true, i1 %10
  br i1 %11, label %.preheader.i, label %H5FL__arr_gc_list.exit, !prof !15

.preheader.i:                                     ; preds = %.lr.ph
  %12 = getelementptr inbounds nuw i8, ptr %5, i64 24
  %13 = load i32, ptr %12, align 8, !tbaa !112
  %.not36.i = icmp eq i32 %13, 0
  br i1 %.not36.i, label %H5FL__arr_gc_list.exit, label %.lr.ph35.i

.lr.ph35.i:                                       ; preds = %.preheader.i
  %14 = getelementptr inbounds nuw i8, ptr %5, i64 48
  %15 = getelementptr inbounds nuw i8, ptr %5, i64 4
  %16 = getelementptr inbounds nuw i8, ptr %5, i64 8
  %.pre.i = load ptr, ptr %14, align 8, !tbaa !48
  br label %17

17:                                               ; preds = %46, %.lr.ph35.i
  %.pre3940.i = phi i32 [ %13, %.lr.ph35.i ], [ %.pre3941.i, %46 ]
  %18 = phi i32 [ %13, %.lr.ph35.i ], [ %47, %46 ]
  %19 = phi ptr [ %.pre.i, %.lr.ph35.i ], [ %48, %46 ]
  %20 = phi ptr [ %.pre.i, %.lr.ph35.i ], [ %49, %46 ]
  %indvars.iv.i = phi i64 [ 0, %.lr.ph35.i ], [ %indvars.iv.next.i, %46 ]
  %21 = getelementptr inbounds nuw %struct.H5FL_arr_node_t, ptr %20, i64 %indvars.iv.i
  %22 = getelementptr inbounds nuw i8, ptr %21, i64 12
  %23 = load i32, ptr %22, align 4, !tbaa !109
  %.not.i = icmp eq i32 %23, 0
  br i1 %.not.i, label %46, label %24

24:                                               ; preds = %17
  %25 = getelementptr inbounds nuw i8, ptr %21, i64 16
  %26 = load ptr, ptr %25, align 8, !tbaa !105
  %.not3132.i = icmp eq ptr %26, null
  br i1 %.not3132.i, label %._crit_edge.i, label %.lr.ph.i

.lr.ph.i:                                         ; preds = %24, %.lr.ph.i
  %.03033.i = phi ptr [ %27, %.lr.ph.i ], [ %26, %24 ]
  %27 = load ptr, ptr %.03033.i, align 8, !tbaa !96
  tail call void @free(ptr noundef nonnull %.03033.i) #10
  %.not31.i = icmp eq ptr %27, null
  br i1 %.not31.i, label %._crit_edge.loopexit.i, label %.lr.ph.i, !llvm.loop !113

._crit_edge.loopexit.i:                           ; preds = %.lr.ph.i
  %.pre38.i = load ptr, ptr %14, align 8, !tbaa !48
  %.pre39.pre.i = load i32, ptr %12, align 8, !tbaa !112
  br label %._crit_edge.i

._crit_edge.i:                                    ; preds = %._crit_edge.loopexit.i, %24
  %.pre39.i = phi i32 [ %.pre39.pre.i, %._crit_edge.loopexit.i ], [ %.pre3940.i, %24 ]
  %28 = phi ptr [ %.pre38.i, %._crit_edge.loopexit.i ], [ %19, %24 ]
  %29 = getelementptr inbounds nuw %struct.H5FL_arr_node_t, ptr %28, i64 %indvars.iv.i
  %30 = getelementptr inbounds nuw i8, ptr %29, i64 12
  %31 = load i32, ptr %30, align 4, !tbaa !109
  %32 = getelementptr inbounds nuw i8, ptr %29, i64 8
  %33 = load i32, ptr %32, align 8, !tbaa !114
  %34 = sub i32 %33, %31
  store i32 %34, ptr %32, align 8, !tbaa !114
  %35 = getelementptr inbounds nuw %struct.H5FL_arr_node_t, ptr %28, i64 %indvars.iv.i, i32 2
  %36 = load i32, ptr %15, align 4, !tbaa !45
  %37 = sub i32 %36, %31
  store i32 %37, ptr %15, align 4, !tbaa !45
  %38 = zext i32 %31 to i64
  %39 = load i64, ptr %29, align 8, !tbaa !108
  %40 = mul i64 %39, %38
  %41 = load i64, ptr %16, align 8, !tbaa !110
  %42 = sub i64 %41, %40
  store i64 %42, ptr %16, align 8, !tbaa !110
  %43 = load i64, ptr @H5FL_arr_gc_head.0, align 8, !tbaa !111
  %44 = sub i64 %43, %40
  store i64 %44, ptr @H5FL_arr_gc_head.0, align 8, !tbaa !111
  %45 = getelementptr inbounds nuw %struct.H5FL_arr_node_t, ptr %28, i64 %indvars.iv.i, i32 3
  store ptr null, ptr %45, align 8, !tbaa !105
  store i32 0, ptr %35, align 4, !tbaa !109
  br label %46

46:                                               ; preds = %._crit_edge.i, %17
  %.pre3941.i = phi i32 [ %.pre3940.i, %17 ], [ %.pre39.i, %._crit_edge.i ]
  %47 = phi i32 [ %18, %17 ], [ %.pre39.i, %._crit_edge.i ]
  %48 = phi ptr [ %19, %17 ], [ %28, %._crit_edge.i ]
  %49 = phi ptr [ %20, %17 ], [ %28, %._crit_edge.i ]
  %indvars.iv.next.i = add nuw nsw i64 %indvars.iv.i, 1
  %50 = zext i32 %47 to i64
  %51 = icmp samesign ult i64 %indvars.iv.next.i, %50
  br i1 %51, label %17, label %H5FL__arr_gc_list.exit, !llvm.loop !115

H5FL__arr_gc_list.exit:                           ; preds = %46, %.lr.ph, %.preheader.i
  %52 = getelementptr inbounds nuw i8, ptr %.047, i64 8
  %.04 = load ptr, ptr %52, align 8, !tbaa !116
  %.not = icmp eq ptr %.04, null
  br i1 %.not, label %.loopexit, label %.lr.ph, !llvm.loop !117

.loopexit:                                        ; preds = %H5FL__arr_gc_list.exit, %0
  ret void
}